; Function Attrs: mustprogress uwtable
define noundef i32 @_ZNK7testing8internal12UnitTestImpl23failed_test_suite_countEv(ptr noundef nonnull readonly align 8 captures(none) dereferenceable(601) %0) local_unnamed_addr #3 align 2 {
  %2 = getelementptr inbounds nuw i8, ptr %0, i64 184
  %3 = load ptr, ptr %2, align 8, !tbaa !1112
  %4 = getelementptr inbounds nuw i8, ptr %0, i64 192
  %5 = load ptr, ptr %4, align 8, !tbaa !1112
  %.not7.i = icmp eq ptr %3, %5
  br i1 %.not7.i, label %_ZN7testing8internal7CountIfISt6vectorIPNS_9TestSuiteESaIS4_EEPFbPKS3_EEEiRKT_T0_.exit, label %.lr.ph.i

.lr.ph.i:                                         ; preds = %1, %_ZN7testing8internalL15TestSuiteFailedEPKNS_9TestSuiteE.exit
  %6 = phi ptr [ %14, %_ZN7testing8internalL15TestSuiteFailedEPKNS_9TestSuiteE.exit ], [ %5, %1 ]
  %.09.i = phi i32 [ %spec.select.i, %_ZN7testing8internalL15TestSuiteFailedEPKNS_9TestSuiteE.exit ], [ 0, %1 ]
  %.sroa.04.08.i = phi ptr [ %16, %_ZN7testing8internalL15TestSuiteFailedEPKNS_9TestSuiteE.exit ], [ %3, %1 ]
  %7 = load ptr, ptr %.sroa.04.08.i, align 8, !tbaa !1113
  %8 = getelementptr inbounds nuw i8, ptr %7, i64 112
  %9 = load i8, ptr %8, align 8, !tbaa !1114, !range !16, !noundef !17
  %10 = trunc nuw i8 %9 to i1
  br i1 %10, label %11, label %_ZN7testing8internalL15TestSuiteFailedEPKNS_9TestSuiteE.exit

11:                                               ; preds = %.lr.ph.i
  %12 = tail call noundef zeroext i1 @_ZNK7testing9TestSuite6FailedEv(ptr noundef nonnull align 8 dereferenceable(264) %7)
  %13 = zext i1 %12 to i32
  %.pre = load ptr, ptr %4, align 8, !tbaa !1112
  br label %_ZN7testing8internalL15TestSuiteFailedEPKNS_9TestSuiteE.exit

_ZN7testing8internalL15TestSuiteFailedEPKNS_9TestSuiteE.exit: ; preds = %.lr.ph.i, %11
  %14 = phi ptr [ %6, %.lr.ph.i ], [ %.pre, %11 ]
  %15 = phi i32 [ 0, %.lr.ph.i ], [ %13, %11 ]
  %spec.select.i = add nuw nsw i32 %15, %.09.i
  %16 = getelementptr inbounds nuw i8, ptr %.sroa.04.08.i, i64 8
  %.not.i = icmp eq ptr %16, %14
  br i1 %.not.i, label %_ZN7testing8internal7CountIfISt6vectorIPNS_9TestSuiteESaIS4_EEPFbPKS3_EEEiRKT_T0_.exit, label %.lr.ph.i, !llvm.loop !1127

_ZN7testing8internal7CountIfISt6vectorIPNS_9TestSuiteESaIS4_EEPFbPKS3_EEEiRKT_T0_.exit: ; preds = %_ZN7testing8internalL15TestSuiteFailedEPKNS_9TestSuiteE.exit, %1
  %.0.lcssa.i = phi i32 [ 0, %1 ], [ %spec.select.i, %_ZN7testing8internalL15TestSuiteFailedEPKNS_9TestSuiteE.exit ]
  ret i32 %.0.lcssa.i
}